target datalayout = "e-m:e-p270:32:32-p271:32:32-p272:64:64-i64:64-i128:128-f80:128-n8:16:32:64-S128"
target triple = "x86_64-pc-linux-gnu"

%struct.MultirangeType = type { i32, i32, i32 }
%struct.RangeBound = type { i64, i8, i8, i8 }

; Function Attrs: nounwind uwtable
define internal zeroext i1 @range_bounds_contains(ptr noundef %0, ptr noundef %1, ptr noundef %2, ptr noundef %3, ptr noundef %4) #0 {
  %6 = alloca i1, align 1
  %7 = alloca ptr, align 8
  %8 = alloca ptr, align 8
  %9 = alloca ptr, align 8
  %10 = alloca ptr, align 8
  %11 = alloca ptr, align 8
  store ptr %0, ptr %7, align 8
  store ptr %1, ptr %8, align 8
  store ptr %2, ptr %9, align 8
  store ptr %3, ptr %10, align 8
  store ptr %4, ptr %11, align 8
  %12 = load ptr, ptr %7, align 8
  %13 = load ptr, ptr %8, align 8
  %14 = load ptr, ptr %10, align 8
  %15 = call i32 @range_cmp_bounds(ptr noundef %12, ptr noundef %13, ptr noundef %14)
  %16 = icmp sle i32 %15, 0
  br i1 %16, label %17, label %24

17:                                               ; preds = %5
  %18 = load ptr, ptr %7, align 8
  %19 = load ptr, ptr %9, align 8
  %20 = load ptr, ptr %11, align 8
  %21 = call i32 @range_cmp_bounds(ptr noundef %18, ptr noundef %19, ptr noundef %20)
  %22 = icmp sge i32 %21, 0
  br i1 %22, label %23, label %24

23:                                               ; preds = %17
  store i1 true, ptr %6, align 1
  br label %25

24:                                               ; preds = %17, %5
  store i1 false, ptr %6, align 1
  br label %25

25:                                               ; preds = %24, %23
  %26 = load i1, ptr %6, align 1
  ret i1 %26
}

; Function Attrs: nounwind uwtable
define dso_local zeroext i1 @range_contains_multirange_internal(ptr noundef %0, ptr noundef %1, ptr noundef %2) #0 {
  %4 = alloca i1, align 1
  %5 = alloca ptr, align 8
  %6 = alloca ptr, align 8
  %7 = alloca ptr, align 8
  %8 = alloca %struct.RangeBound, align 8
  %9 = alloca %struct.RangeBound, align 8
  %10 = alloca %struct.RangeBound, align 8
  %11 = alloca %struct.RangeBound, align 8
  %12 = alloca %struct.RangeBound, align 8
  %13 = alloca i8, align 1
  %14 = alloca i32, align 4
  store ptr %0, ptr %5, align 8
  store ptr %1, ptr %6, align 8
  store ptr %2, ptr %7, align 8
  call void @llvm.lifetime.start.p0(i64 16, ptr %8) #9
  call void @llvm.lifetime.start.p0(i64 16, ptr %9) #9
  call void @llvm.lifetime.start.p0(i64 16, ptr %10) #9
  call void @llvm.lifetime.start.p0(i64 16, ptr %11) #9
  call void @llvm.lifetime.start.p0(i64 16, ptr %12) #9
  call void @llvm.lifetime.start.p0(i64 1, ptr %13) #9
  %15 = load ptr, ptr %7, align 8
  %16 = getelementptr inbounds nuw %struct.MultirangeType, ptr %15, i32 0, i32 2
  %17 = load i32, ptr %16, align 4
  %18 = icmp eq i32 %17, 0
  br i1 %18, label %19, label %20

19:                                               ; preds = %3
  store i1 true, ptr %4, align 1
  store i32 1, ptr %14, align 4
  br label %40

20:                                               ; preds = %3
  %21 = load ptr, ptr %6, align 8
  %22 = call signext i8 @range_get_flags(ptr noundef %21)
  %23 = sext i8 %22 to i32
  %24 = and i32 %23, 1
  %25 = icmp ne i32 %24, 0
  br i1 %25, label %26, label %27

26:                                               ; preds = %20
  store i1 false, ptr %4, align 1
  store i32 1, ptr %14, align 4
  br label %40

27:                                               ; preds = %20
  %28 = load ptr, ptr %5, align 8
  %29 = load ptr, ptr %6, align 8
  call void @range_deserialize(ptr noundef %28, ptr noundef %29, ptr noundef %8, ptr noundef %9, ptr noundef %13)
  %30 = load ptr, ptr %5, align 8
  %31 = load ptr, ptr %7, align 8
  call void @multirange_get_bounds(ptr noundef %30, ptr noundef %31, i32 noundef 0, ptr noundef %10, ptr noundef %12)
  %32 = load ptr, ptr %5, align 8
  %33 = load ptr, ptr %7, align 8
  %34 = load ptr, ptr %7, align 8
  %35 = getelementptr inbounds nuw %struct.MultirangeType, ptr %34, i32 0, i32 2
  %36 = load i32, ptr %35, align 4
  %37 = sub i32 %36, 1
  call void @multirange_get_bounds(ptr noundef %32, ptr noundef %33, i32 noundef %37, ptr noundef %12, ptr noundef %11)
  %38 = load ptr, ptr %5, align 8
  %39 = call zeroext i1 @range_bounds_contains(ptr noundef %38, ptr noundef %8, ptr noundef %9, ptr noundef %10, ptr noundef %11)
  store i1 %39, ptr %4, align 1
  store i32 1, ptr %14, align 4
  br label %40

40:                                               ; preds = %27, %26, %19
  call void @llvm.lifetime.end.p0(i64 1, ptr %13) #9
  call void @llvm.lifetime.end.p0(i64 16, ptr %12) #9
  call void @llvm.lifetime.end.p0(i64 16, ptr %11) #9
  call void @llvm.lifetime.end.p0(i64 16, ptr %10) #9
  call void @llvm.lifetime.end.p0(i64 16, ptr %9) #9
  call void @llvm.lifetime.end.p0(i64 16, ptr %8) #9
  %41 = load i1, ptr %4, align 1
  ret i1 %41
}