; Function Attrs: nounwind uwtable
define dso_local noundef zeroext i1 @range_contains_multirange_internal(ptr noundef %0, ptr noundef %1, ptr noundef %2) local_unnamed_addr #0 {
  %4 = alloca %struct.RangeBound, align 8
  %5 = alloca %struct.RangeBound, align 8
  %6 = alloca %struct.RangeBound, align 8
  %7 = alloca %struct.RangeBound, align 8
  %8 = alloca %struct.RangeBound, align 8
  %9 = alloca i8, align 1
  call void @llvm.lifetime.start.p0(i64 16, ptr nonnull %4) #11
  call void @llvm.lifetime.start.p0(i64 16, ptr nonnull %5) #11
  call void @llvm.lifetime.start.p0(i64 16, ptr nonnull %6) #11
  call void @llvm.lifetime.start.p0(i64 16, ptr nonnull %7) #11
  call void @llvm.lifetime.start.p0(i64 16, ptr nonnull %8) #11
  call void @llvm.lifetime.start.p0(i64 1, ptr nonnull %9) #11
  %10 = getelementptr inbounds nuw i8, ptr %2, i64 8
  %11 = load i32, ptr %10, align 4
  %12 = icmp eq i32 %11, 0
  br i1 %12, label %range_bounds_contains.exit, label %13

13:                                               ; preds = %3
  %14 = tail call signext i8 @range_get_flags(ptr noundef %1) #11
  %15 = and i8 %14, 1
  %.not = icmp eq i8 %15, 0
  br i1 %.not, label %16, label %range_bounds_contains.exit

16:                                               ; preds = %13
  call void @range_deserialize(ptr noundef %0, ptr noundef %1, ptr noundef nonnull %4, ptr noundef nonnull %5, ptr noundef nonnull %9) #11
  call void @multirange_get_bounds(ptr noundef %0, ptr noundef nonnull %2, i32 noundef 0, ptr noundef nonnull %6, ptr noundef nonnull %8)
  %17 = load i32, ptr %10, align 4
  %18 = add i32 %17, -1
  call void @multirange_get_bounds(ptr noundef %0, ptr noundef nonnull %2, i32 noundef %18, ptr noundef nonnull %8, ptr noundef nonnull %7)
  %19 = call i32 @range_cmp_bounds(ptr noundef %0, ptr noundef nonnull %4, ptr noundef nonnull %6) #11
  %20 = icmp slt i32 %19, 1
  br i1 %20, label %21, label %24

21:                                               ; preds = %16
  %22 = call i32 @range_cmp_bounds(ptr noundef %0, ptr noundef nonnull %5, ptr noundef nonnull %7) #11
  %23 = icmp sgt i32 %22, -1
  br i1 %23, label %range_bounds_contains.exit, label %24

24:                                               ; preds = %21, %16
  br label %range_bounds_contains.exit

range_bounds_contains.exit:                       ; preds = %24, %21, %13, %3
  %.0 = phi i1 [ true, %3 ], [ false, %13 ], [ false, %24 ], [ true, %21 ]
  call void @llvm.lifetime.end.p0(i64 1, ptr nonnull %9) #11
  call void @llvm.lifetime.end.p0(i64 16, ptr nonnull %8) #11
  call void @llvm.lifetime.end.p0(i64 16, ptr nonnull %7) #11
  call void @llvm.lifetime.end.p0(i64 16, ptr nonnull %6) #11
  call void @llvm.lifetime.end.p0(i64 16, ptr nonnull %5) #11
  call void @llvm.lifetime.end.p0(i64 16, ptr nonnull %4) #11
  ret i1 %.0
}